target datalayout = "e-m:e-p270:32:32-p271:32:32-p272:64:64-i64:64-i128:128-f80:128-n8:16:32:64-S128"
target triple = "x86_64-pc-linux-gnu"

%struct.pdf_struct = type { ptr, i32, i32, i32, i32, i32, ptr, i64, ptr, i64, i64, i64, ptr, ptr, i32, i32, ptr, i32, ptr, i32, %struct.pdf_stats, ptr, i32, i32 }
%struct.pdf_stats = type { i32, i32, i32, i32, i32, i32, i32, i32, i32, i32, i32, i32, i32, i32, i32, i32, i32, i32, i32, i32, i32, i32, i32, i32, i32, ptr, ptr, ptr, ptr, ptr, ptr, ptr, ptr }

@cli_debug_flag = external global i8, align 1
@.str.299 = private unnamed_addr constant [17 x i8] c"cli_pdf: %s: %s\0A\00", align 1
@.str.300 = private unnamed_addr constant [4 x i8] c"U: \00", align 1
@.str.301 = private unnamed_addr constant [4 x i8] c"O: \00", align 1
@.str.302 = private unnamed_addr constant [41 x i8] c"check_owner_password: Missing OE value!\0A\00", align 1
@.str.303 = private unnamed_addr constant [5 x i8] c"OE: \00", align 1
@.str.304 = private unnamed_addr constant [59 x i8] c"check_owner_password: Owner password check did not match!\0A\00", align 1
@.str.305 = private unnamed_addr constant [48 x i8] c"check_owner_password: OE length is not 32: %zu\0A\00", align 1
@.str.306 = private unnamed_addr constant [59 x i8] c"check_owner_password: Cannot allocate memory for pdf->key\0A\00", align 1
@.str.307 = private unnamed_addr constant [47 x i8] c"check_owner_password: Candidate encryption key\00", align 1
@.str.308 = private unnamed_addr constant [72 x i8] c"check_owner_password: Unknown or unsupported encryption version. R: %d\0A\00", align 1
@.str.309 = private unnamed_addr constant [93 x i8] c"check_owner_password: encrypted PDF found, owner password is empty, will attempt to decrypt\0A\00", align 1
@.str.310 = private unnamed_addr constant [88 x i8] c"check_owner_password: encrypted PDF found but cannot decrypt with empty owner password\0A\00", align 1

; Function Attrs: nounwind uwtable
define internal void @dbg_printhex(ptr noundef %0, ptr noundef %1, i32 noundef %2) #0 {
  %4 = alloca ptr, align 8
  %5 = alloca ptr, align 8
  %6 = alloca i32, align 4
  %7 = alloca ptr, align 8
  store ptr %0, ptr %4, align 8
  store ptr %1, ptr %5, align 8
  store i32 %2, ptr %6, align 4
  %8 = load i8, ptr @cli_debug_flag, align 1
  %9 = icmp ne i8 %8, 0
  br i1 %9, label %10, label %17

10:                                               ; preds = %3
  %11 = load ptr, ptr %5, align 8
  %12 = load i32, ptr %6, align 4
  %13 = call ptr @cli_str2hex(ptr noundef %11, i32 noundef %12)
  store ptr %13, ptr %7, align 8
  %14 = load ptr, ptr %4, align 8
  %15 = load ptr, ptr %7, align 8
  call void (ptr, ...) @cli_dbgmsg(ptr noundef @.str.299, ptr noundef %14, ptr noundef %15)
  %16 = load ptr, ptr %7, align 8
  call void @free(ptr noundef %16) #11
  br label %17

17:                                               ; preds = %10, %3
  ret void
}

; Function Attrs: nounwind uwtable
define internal void @check_owner_password(ptr noundef %0, i32 noundef %1, ptr noundef %2, ptr noundef %3, ptr noundef %4, i64 noundef %5) #0 {
  %7 = alloca ptr, align 8
  %8 = alloca i32, align 4
  %9 = alloca ptr, align 8
  %10 = alloca ptr, align 8
  %11 = alloca ptr, align 8
  %12 = alloca i64, align 8
  %13 = alloca i8, align 1
  %14 = alloca [32 x i8], align 16
  %15 = alloca [32 x i8], align 16
  %16 = alloca i64, align 8
  %17 = alloca [1 x i8], align 1
  store ptr %0, ptr %7, align 8
  store i32 %1, ptr %8, align 4
  store ptr %2, ptr %9, align 8
  store ptr %3, ptr %10, align 8
  store ptr %4, ptr %11, align 8
  store i64 %5, ptr %12, align 8
  store i8 0, ptr %13, align 1
  %18 = load ptr, ptr %10, align 8
  call void @dbg_printhex(ptr noundef @.str.300, ptr noundef %18, i32 noundef 32)
  %19 = load ptr, ptr %9, align 8
  call void @dbg_printhex(ptr noundef @.str.301, ptr noundef %19, i32 noundef 32)
  %20 = load i32, ptr %8, align 4
  switch i32 %20, label %79 [
    i32 6, label %21
  ]

21:                                               ; preds = %6
  store i64 0, ptr %16, align 8
  call void @llvm.memset.p0.i64(ptr align 1 %17, i8 0, i64 1, i1 false)
  %22 = load ptr, ptr %11, align 8
  %23 = icmp eq ptr null, %22
  br i1 %23, label %24, label %25

24:                                               ; preds = %21
  call void (ptr, ...) @cli_dbgmsg(ptr noundef @.str.302)
  br label %91

25:                                               ; preds = %21
  %26 = load ptr, ptr %11, align 8
  %27 = load i64, ptr %12, align 8
  %28 = trunc i64 %27 to i32
  call void @dbg_printhex(ptr noundef @.str.303, ptr noundef %26, i32 noundef %28)
  %29 = getelementptr inbounds [1 x i8], ptr %17, i64 0, i64 0
  %30 = load i64, ptr %16, align 8
  %31 = load ptr, ptr %9, align 8
  %32 = getelementptr inbounds i8, ptr %31, i64 32
  %33 = getelementptr inbounds [32 x i8], ptr %15, i64 0, i64 0
  %34 = load ptr, ptr %10, align 8
  call void @compute_hash_r6(ptr noundef %29, i64 noundef %30, ptr noundef %32, ptr noundef %33, ptr noundef %34)
  %35 = load ptr, ptr %9, align 8
  %36 = getelementptr inbounds [32 x i8], ptr %15, i64 0, i64 0
  %37 = call i32 @memcmp(ptr noundef %35, ptr noundef %36, i64 noundef 32) #13
  %38 = icmp ne i32 0, %37
  br i1 %38, label %39, label %40

39:                                               ; preds = %25
  call void (ptr, ...) @cli_dbgmsg(ptr noundef @.str.304)
  br label %81

40:                                               ; preds = %25
  %41 = getelementptr inbounds [1 x i8], ptr %17, i64 0, i64 0
  %42 = load i64, ptr %16, align 8
  %43 = load ptr, ptr %9, align 8
  %44 = getelementptr inbounds i8, ptr %43, i64 40
  %45 = getelementptr inbounds [32 x i8], ptr %14, i64 0, i64 0
  %46 = load ptr, ptr %10, align 8
  call void @compute_hash_r6(ptr noundef %41, i64 noundef %42, ptr noundef %44, ptr noundef %45, ptr noundef %46)
  %47 = load i64, ptr %12, align 8
  %48 = icmp ne i64 %47, 32
  br i1 %48, label %49, label %51

49:                                               ; preds = %40
  %50 = load i64, ptr %12, align 8
  call void (ptr, ...) @cli_dbgmsg(ptr noundef @.str.305, i64 noundef %50)
  br label %78

51:                                               ; preds = %40
  %52 = load ptr, ptr %7, align 8
  %53 = getelementptr inbounds %struct.pdf_struct, ptr %52, i32 0, i32 19
  store i32 32, ptr %53, align 8
  %54 = load ptr, ptr %7, align 8
  %55 = getelementptr inbounds %struct.pdf_struct, ptr %54, i32 0, i32 19
  %56 = load i32, ptr %55, align 8
  %57 = zext i32 %56 to i64
  %58 = call ptr @cli_max_malloc(i64 noundef %57)
  %59 = load ptr, ptr %7, align 8
  %60 = getelementptr inbounds %struct.pdf_struct, ptr %59, i32 0, i32 18
  store ptr %58, ptr %60, align 8
  %61 = load ptr, ptr %7, align 8
  %62 = getelementptr inbounds %struct.pdf_struct, ptr %61, i32 0, i32 18
  %63 = load ptr, ptr %62, align 8
  %64 = icmp ne ptr %63, null
  br i1 %64, label %66, label %65

65:                                               ; preds = %51
  call void (ptr, ...) @cli_errmsg(ptr noundef @.str.306)
  br label %91

66:                                               ; preds = %51
  %67 = load ptr, ptr %11, align 8
  %68 = load ptr, ptr %7, align 8
  %69 = getelementptr inbounds %struct.pdf_struct, ptr %68, i32 0, i32 18
  %70 = load ptr, ptr %69, align 8
  %71 = getelementptr inbounds [32 x i8], ptr %14, i64 0, i64 0
  call void @aes_256cbc_decrypt(ptr noundef %67, ptr noundef %12, ptr noundef %70, ptr noundef %71, i32 noundef 32, i32 noundef 0)
  %72 = load ptr, ptr %7, align 8
  %73 = getelementptr inbounds %struct.pdf_struct, ptr %72, i32 0, i32 18
  %74 = load ptr, ptr %73, align 8
  %75 = load ptr, ptr %7, align 8
  %76 = getelementptr inbounds %struct.pdf_struct, ptr %75, i32 0, i32 19
  %77 = load i32, ptr %76, align 8
  call void @dbg_printhex(ptr noundef @.str.307, ptr noundef %74, i32 noundef %77)
  store i8 1, ptr %13, align 1
  br label %78

78:                                               ; preds = %66, %49
  br label %81

79:                                               ; preds = %6
  %80 = load i32, ptr %8, align 4
  call void (ptr, ...) @cli_dbgmsg(ptr noundef @.str.308, i32 noundef %80)
  br label %81

81:                                               ; preds = %79, %78, %39
  %82 = load i8, ptr %13, align 1
  %83 = trunc i8 %82 to i1
  br i1 %83, label %84, label %89

84:                                               ; preds = %81
  %85 = load ptr, ptr %7, align 8
  %86 = getelementptr inbounds %struct.pdf_struct, ptr %85, i32 0, i32 2
  %87 = load i32, ptr %86, align 4
  %88 = or i32 %87, 524288
  store i32 %88, ptr %86, align 4
  call void (ptr, ...) @cli_dbgmsg(ptr noundef @.str.309)
  br label %90

89:                                               ; preds = %81
  call void (ptr, ...) @cli_dbgmsg(ptr noundef @.str.310)
  br label %90

90:                                               ; preds = %89, %84
  br label %91

91:                                               ; preds = %90, %65, %24
  ret void
}