; Function Attrs: nounwind uwtable
define internal fastcc void @check_owner_password(ptr nocapture noundef %0, i32 noundef %1, ptr noundef %2, ptr noundef %3, ptr noundef %4, i64 noundef %5) unnamed_addr #0 {
  %7 = alloca i64, align 8
  %8 = alloca [32 x i8], align 16
  %9 = alloca [32 x i8], align 16
  store i64 %5, ptr %7, align 8
  %10 = load i8, ptr @cli_debug_flag, align 1
  %.not.i = icmp eq i8 %10, 0
  br i1 %.not.i, label %dbg_printhex.exit30, label %dbg_printhex.exit

dbg_printhex.exit:                                ; preds = %6
  %11 = tail call ptr @cli_str2hex(ptr noundef %3, i32 noundef 32) #22
  tail call void (ptr, ...) @cli_dbgmsg(ptr noundef nonnull @.str.299, ptr noundef nonnull @.str.300, ptr noundef %11) #22
  tail call void @free(ptr noundef %11) #22
  %.pr = load i8, ptr @cli_debug_flag, align 1
  %.not.i29 = icmp eq i8 %.pr, 0
  br i1 %.not.i29, label %dbg_printhex.exit30, label %12

12:                                               ; preds = %dbg_printhex.exit
  %13 = tail call ptr @cli_str2hex(ptr noundef %2, i32 noundef 32) #22
  tail call void (ptr, ...) @cli_dbgmsg(ptr noundef nonnull @.str.299, ptr noundef nonnull @.str.301, ptr noundef %13) #22
  tail call void @free(ptr noundef %13) #22
  br label %dbg_printhex.exit30

dbg_printhex.exit30:                              ; preds = %6, %dbg_printhex.exit, %12
  %cond = icmp eq i32 %1, 6
  br i1 %cond, label %14, label %41

14:                                               ; preds = %dbg_printhex.exit30
  %15 = icmp eq ptr %4, null
  br i1 %15, label %16, label %17

16:                                               ; preds = %14
  tail call void (ptr, ...) @cli_dbgmsg(ptr noundef nonnull @.str.302) #22
  br label %42

17:                                               ; preds = %14
  %18 = load i8, ptr @cli_debug_flag, align 1
  %.not.i31 = icmp eq i8 %18, 0
  br i1 %.not.i31, label %dbg_printhex.exit32, label %19

19:                                               ; preds = %17
  %20 = trunc i64 %5 to i32
  %21 = tail call ptr @cli_str2hex(ptr noundef nonnull %4, i32 noundef %20) #22
  tail call void (ptr, ...) @cli_dbgmsg(ptr noundef nonnull @.str.299, ptr noundef nonnull @.str.303, ptr noundef %21) #22
  tail call void @free(ptr noundef %21) #22
  br label %dbg_printhex.exit32

dbg_printhex.exit32:                              ; preds = %17, %19
  %22 = getelementptr inbounds i8, ptr %2, i64 32
  %.val = load i64, ptr %22, align 1
  call fastcc void @compute_hash_r6(i64 %.val, ptr noundef nonnull %9, ptr noundef %3)
  %bcmp = call i32 @bcmp(ptr noundef nonnull dereferenceable(32) %2, ptr noundef nonnull dereferenceable(32) %9, i64 32)
  %.not = icmp eq i32 %bcmp, 0
  br i1 %.not, label %24, label %23

23:                                               ; preds = %dbg_printhex.exit32
  tail call void (ptr, ...) @cli_dbgmsg(ptr noundef nonnull @.str.304) #22
  br label %.critedge

24:                                               ; preds = %dbg_printhex.exit32
  %25 = getelementptr inbounds i8, ptr %2, i64 40
  %.val28 = load i64, ptr %25, align 1
  call fastcc void @compute_hash_r6(i64 %.val28, ptr noundef nonnull %8, ptr noundef %3)
  %.not26 = icmp eq i64 %5, 32
  br i1 %.not26, label %27, label %26

26:                                               ; preds = %24
  tail call void (ptr, ...) @cli_dbgmsg(ptr noundef nonnull @.str.305, i64 noundef %5) #22
  br label %.critedge

27:                                               ; preds = %24
  %28 = getelementptr inbounds i8, ptr %0, i64 128
  store i32 32, ptr %28, align 8
  %29 = tail call ptr @cli_max_malloc(i64 noundef 32) #22
  %30 = getelementptr inbounds i8, ptr %0, i64 120
  store ptr %29, ptr %30, align 8
  %.not27 = icmp eq ptr %29, null
  br i1 %.not27, label %31, label %32

31:                                               ; preds = %27
  tail call void (ptr, ...) @cli_errmsg(ptr noundef nonnull @.str.306) #22
  br label %42

32:                                               ; preds = %27
  call fastcc void @aes_256cbc_decrypt(ptr noundef nonnull %4, ptr noundef nonnull %7, ptr noundef nonnull %29, ptr noundef nonnull %8, i32 noundef 32, i32 noundef 0)
  %33 = load i8, ptr @cli_debug_flag, align 1
  %.not.i33 = icmp eq i8 %33, 0
  br i1 %.not.i33, label %dbg_printhex.exit34, label %34

34:                                               ; preds = %32
  %35 = load i32, ptr %28, align 8
  %36 = load ptr, ptr %30, align 8
  %37 = call ptr @cli_str2hex(ptr noundef %36, i32 noundef %35) #22
  call void (ptr, ...) @cli_dbgmsg(ptr noundef nonnull @.str.299, ptr noundef nonnull @.str.307, ptr noundef %37) #22
  call void @free(ptr noundef %37) #22
  br label %dbg_printhex.exit34

dbg_printhex.exit34:                              ; preds = %32, %34
  %38 = getelementptr inbounds i8, ptr %0, i64 12
  %39 = load i32, ptr %38, align 4
  %40 = or i32 %39, 524288
  store i32 %40, ptr %38, align 4
  call void (ptr, ...) @cli_dbgmsg(ptr noundef nonnull @.str.309) #22
  br label %42

41:                                               ; preds = %dbg_printhex.exit30
  tail call void (ptr, ...) @cli_dbgmsg(ptr noundef nonnull @.str.308, i32 noundef %1) #22
  br label %.critedge

.critedge:                                        ; preds = %23, %26, %41
  tail call void (ptr, ...) @cli_dbgmsg(ptr noundef nonnull @.str.310) #22
  br label %42

42:                                               ; preds = %dbg_printhex.exit34, %.critedge, %31, %16
  ret void
}